target datalayout = "e-m:e-p270:32:32-p271:32:32-p272:64:64-i64:64-i128:128-f80:128-n8:16:32:64-S128"
target triple = "x86_64-pc-linux-gnu"

%"class.icu_77::UnicodeString" = type { %"class.icu_77::Replaceable", %"union.icu_77::UnicodeString::StackBufferOrFields" }
%"class.icu_77::Replaceable" = type { %"class.icu_77::UObject" }
%"class.icu_77::UObject" = type { ptr }
%"union.icu_77::UnicodeString::StackBufferOrFields" = type { %struct.anon.0, [32 x i8] }
%struct.anon.0 = type { i16, i32, i32, ptr }
%struct.anon = type { i16, [27 x i16] }
%"class.icu_77::UTS46" = type <{ %"class.icu_77::IDNA", ptr, i32, [4 x i8] }>
%"class.icu_77::IDNA" = type { %"class.icu_77::UObject" }
%"class.icu_77::IDNAInfo" = type <{ i32, i32, i8, i8, i8, i8 }>

; Function Attrs: inlinehint mustprogress nounwind uwtable
define linkonce_odr noundef signext i8 @_ZNK6icu_7713UnicodeString7isBogusEv(ptr noundef nonnull align 8 dereferenceable(64) %0) #2 comdat align 2 {
  %2 = alloca ptr, align 8
  store ptr %0, ptr %2, align 8, !tbaa !31
  %3 = load ptr, ptr %2, align 8
  %4 = getelementptr inbounds nuw %"class.icu_77::UnicodeString", ptr %3, i32 0, i32 1
  %5 = getelementptr inbounds nuw %struct.anon.0, ptr %4, i32 0, i32 0
  %6 = load i16, ptr %5, align 8, !tbaa !33
  %7 = sext i16 %6 to i32
  %8 = and i32 %7, 1
  %9 = trunc i32 %8 to i8
  ret i8 %9
}

; Function Attrs: inlinehint mustprogress uwtable
define linkonce_odr noundef nonnull align 8 dereferenceable(64) ptr @_ZN6icu_7713UnicodeString6insertEiDs(ptr noundef nonnull align 8 dereferenceable(64) %0, i32 noundef %1, i16 noundef zeroext %2) #3 comdat align 2 {
  %4 = alloca ptr, align 8
  %5 = alloca i32, align 4
  %6 = alloca i16, align 2
  store ptr %0, ptr %4, align 8, !tbaa !31
  store i32 %1, ptr %5, align 4, !tbaa !14
  store i16 %2, ptr %6, align 2, !tbaa !47
  %7 = load ptr, ptr %4, align 8
  %8 = load i32, ptr %5, align 4, !tbaa !14
  %9 = call noundef nonnull align 8 dereferenceable(64) ptr @_ZN6icu_7713UnicodeString9doReplaceEiiPKDsii(ptr noundef nonnull align 8 dereferenceable(64) %7, i32 noundef %8, i32 noundef 0, ptr noundef %6, i32 noundef 0, i32 noundef 1)
  ret ptr %9
}

; Function Attrs: inlinehint mustprogress nounwind uwtable
define linkonce_odr noundef ptr @_ZNK6icu_7713UnicodeString9getBufferEv(ptr noundef nonnull align 8 dereferenceable(64) %0) #2 comdat align 2 {
  %2 = alloca ptr, align 8
  %3 = alloca ptr, align 8
  store ptr %0, ptr %3, align 8, !tbaa !31
  %4 = load ptr, ptr %3, align 8
  %5 = getelementptr inbounds nuw %"class.icu_77::UnicodeString", ptr %4, i32 0, i32 1
  %6 = getelementptr inbounds nuw %struct.anon.0, ptr %5, i32 0, i32 0
  %7 = load i16, ptr %6, align 8, !tbaa !33
  %8 = sext i16 %7 to i32
  %9 = and i32 %8, 17
  %10 = icmp ne i32 %9, 0
  br i1 %10, label %11, label %12

11:                                               ; preds = %1
  store ptr null, ptr %2, align 8
  br label %27

12:                                               ; preds = %1
  %13 = getelementptr inbounds nuw %"class.icu_77::UnicodeString", ptr %4, i32 0, i32 1
  %14 = getelementptr inbounds nuw %struct.anon.0, ptr %13, i32 0, i32 0
  %15 = load i16, ptr %14, align 8, !tbaa !33
  %16 = sext i16 %15 to i32
  %17 = and i32 %16, 2
  %18 = icmp ne i32 %17, 0
  br i1 %18, label %19, label %23

19:                                               ; preds = %12
  %20 = getelementptr inbounds nuw %"class.icu_77::UnicodeString", ptr %4, i32 0, i32 1
  %21 = getelementptr inbounds nuw %struct.anon, ptr %20, i32 0, i32 1
  %22 = getelementptr inbounds [27 x i16], ptr %21, i64 0, i64 0
  store ptr %22, ptr %2, align 8
  br label %27

23:                                               ; preds = %12
  %24 = getelementptr inbounds nuw %"class.icu_77::UnicodeString", ptr %4, i32 0, i32 1
  %25 = getelementptr inbounds nuw %struct.anon.0, ptr %24, i32 0, i32 3
  %26 = load ptr, ptr %25, align 8, !tbaa !33
  store ptr %26, ptr %2, align 8
  br label %27

27:                                               ; preds = %23, %19, %11
  %28 = load ptr, ptr %2, align 8
  ret ptr %28
}

; Function Attrs: inlinehint mustprogress nounwind uwtable
define internal noundef signext i8 @_ZL9U_FAILURE10UErrorCode(i32 noundef %0) #2 {
  %2 = alloca i32, align 4
  store i32 %0, ptr %2, align 4, !tbaa !15
  %3 = load i32, ptr %2, align 4, !tbaa !15
  %4 = icmp sgt i32 %3, 0
  %5 = zext i1 %4 to i8
  ret i8 %5
}

; Function Attrs: mustprogress uwtable
define noundef i32 @_ZNK6icu_775UTS4615markBadACELabelERNS_13UnicodeStringEiiaRNS_8IDNAInfoER10UErrorCode(ptr noundef nonnull align 8 dereferenceable(20) %0, ptr noundef nonnull align 8 dereferenceable(64) %1, i32 noundef %2, i32 noundef %3, i8 noundef signext %4, ptr noundef nonnull align 4 dereferenceable(11) %5, ptr noundef nonnull align 4 dereferenceable(4) %6) #1 align 2 {
  %8 = alloca i32, align 4
  %9 = alloca ptr, align 8
  %10 = alloca ptr, align 8
  %11 = alloca i32, align 4
  %12 = alloca i32, align 4
  %13 = alloca i8, align 1
  %14 = alloca ptr, align 8
  %15 = alloca ptr, align 8
  %16 = alloca i8, align 1
  %17 = alloca i8, align 1
  %18 = alloca i8, align 1
  %19 = alloca ptr, align 8
  %20 = alloca ptr, align 8
  %21 = alloca ptr, align 8
  %22 = alloca i16, align 2
  %23 = alloca i32, align 4
  store ptr %0, ptr %9, align 8, !tbaa !34
  store ptr %1, ptr %10, align 8, !tbaa !31
  store i32 %2, ptr %11, align 4, !tbaa !14
  store i32 %3, ptr %12, align 4, !tbaa !14
  store i8 %4, ptr %13, align 1, !tbaa !33
  store ptr %5, ptr %14, align 8, !tbaa !27
  store ptr %6, ptr %15, align 8, !tbaa !22
  %24 = load ptr, ptr %9, align 8
  %25 = load ptr, ptr %15, align 8, !tbaa !22
  %26 = load i32, ptr %25, align 4, !tbaa !15
  %27 = call noundef signext i8 @_ZL9U_FAILURE10UErrorCode(i32 noundef %26)
  %28 = icmp ne i8 %27, 0
  br i1 %28, label %29, label %30

29:                                               ; preds = %7
  store i32 0, ptr %8, align 4
  br label %123

30:                                               ; preds = %7
  call void @llvm.lifetime.start.p0(i64 1, ptr %16) #13
  %31 = getelementptr inbounds nuw %"class.icu_77::UTS46", ptr %24, i32 0, i32 2
  %32 = load i32, ptr %31, align 8, !tbaa !38
  %33 = and i32 %32, 2
  %34 = icmp ne i32 %33, 0
  %35 = zext i1 %34 to i8
  store i8 %35, ptr %16, align 1, !tbaa !33
  call void @llvm.lifetime.start.p0(i64 1, ptr %17) #13
  store i8 1, ptr %17, align 1, !tbaa !33
  call void @llvm.lifetime.start.p0(i64 1, ptr %18) #13
  store i8 1, ptr %18, align 1, !tbaa !33
  call void @llvm.lifetime.start.p0(i64 8, ptr %19) #13
  %36 = load ptr, ptr %10, align 8, !tbaa !31
  %37 = call noundef ptr @_ZNK6icu_7713UnicodeString9getBufferEv(ptr noundef nonnull align 8 dereferenceable(64) %36)
  %38 = load i32, ptr %11, align 4, !tbaa !14
  %39 = sext i32 %38 to i64
  %40 = getelementptr inbounds i16, ptr %37, i64 %39
  store ptr %40, ptr %19, align 8, !tbaa !42
  call void @llvm.lifetime.start.p0(i64 8, ptr %20) #13
  %41 = load ptr, ptr %19, align 8, !tbaa !42
  %42 = load i32, ptr %12, align 4, !tbaa !14
  %43 = sext i32 %42 to i64
  %44 = getelementptr inbounds i16, ptr %41, i64 %43
  store ptr %44, ptr %20, align 8, !tbaa !42
  call void @llvm.lifetime.start.p0(i64 8, ptr %21) #13
  %45 = load ptr, ptr %19, align 8, !tbaa !42
  %46 = getelementptr inbounds i16, ptr %45, i64 4
  store ptr %46, ptr %21, align 8, !tbaa !42
  br label %47

47:                                               ; preds = %85, %30
  %48 = load ptr, ptr %21, align 8, !tbaa !42
  %49 = load ptr, ptr %20, align 8, !tbaa !42
  %50 = icmp ult ptr %48, %49
  br i1 %50, label %52, label %51

51:                                               ; preds = %47
  call void @llvm.lifetime.end.p0(i64 8, ptr %21) #13
  br label %88

52:                                               ; preds = %47
  call void @llvm.lifetime.start.p0(i64 2, ptr %22) #13
  %53 = load ptr, ptr %21, align 8, !tbaa !42
  %54 = load i16, ptr %53, align 2, !tbaa !47
  store i16 %54, ptr %22, align 2, !tbaa !47
  %55 = load i16, ptr %22, align 2, !tbaa !47
  %56 = zext i16 %55 to i32
  %57 = icmp sle i32 %56, 127
  br i1 %57, label %58, label %83

58:                                               ; preds = %52
  %59 = load i16, ptr %22, align 2, !tbaa !47
  %60 = zext i16 %59 to i32
  %61 = icmp eq i32 %60, 46
  br i1 %61, label %62, label %68

62:                                               ; preds = %58
  %63 = load ptr, ptr %14, align 8, !tbaa !27
  %64 = getelementptr inbounds nuw %"class.icu_77::IDNAInfo", ptr %63, i32 0, i32 1
  %65 = load i32, ptr %64, align 4, !tbaa !46
  %66 = or i32 %65, 512
  store i32 %66, ptr %64, align 4, !tbaa !46
  %67 = load ptr, ptr %21, align 8, !tbaa !42
  store i16 -3, ptr %67, align 2, !tbaa !47
  store i8 0, ptr %18, align 1, !tbaa !33
  store i8 0, ptr %17, align 1, !tbaa !33
  br label %82

68:                                               ; preds = %58
  %69 = load i16, ptr %22, align 2, !tbaa !47
  %70 = zext i16 %69 to i64
  %71 = getelementptr inbounds nuw [128 x i8], ptr @_ZN6icu_77L9asciiDataE, i64 0, i64 %70
  %72 = load i8, ptr %71, align 1, !tbaa !33
  %73 = sext i8 %72 to i32
  %74 = icmp slt i32 %73, 0
  br i1 %74, label %75, label %81

75:                                               ; preds = %68
  store i8 0, ptr %18, align 1, !tbaa !33
  %76 = load i8, ptr %16, align 1, !tbaa !33
  %77 = icmp ne i8 %76, 0
  br i1 %77, label %78, label %80

78:                                               ; preds = %75
  %79 = load ptr, ptr %21, align 8, !tbaa !42
  store i16 -3, ptr %79, align 2, !tbaa !47
  store i8 0, ptr %17, align 1, !tbaa !33
  br label %80

80:                                               ; preds = %78, %75
  br label %81

81:                                               ; preds = %80, %68
  br label %82

82:                                               ; preds = %81, %62
  br label %84

83:                                               ; preds = %52
  store i8 0, ptr %18, align 1, !tbaa !33
  store i8 0, ptr %17, align 1, !tbaa !33
  br label %84

84:                                               ; preds = %83, %82
  call void @llvm.lifetime.end.p0(i64 2, ptr %22) #13
  br label %85

85:                                               ; preds = %84
  %86 = load ptr, ptr %21, align 8, !tbaa !42
  %87 = getelementptr inbounds nuw i16, ptr %86, i32 1
  store ptr %87, ptr %21, align 8, !tbaa !42
  br label %47, !llvm.loop !67

88:                                               ; preds = %51
  %89 = load i8, ptr %18, align 1, !tbaa !33
  %90 = icmp ne i8 %89, 0
  br i1 %90, label %91, label %105

91:                                               ; preds = %88
  %92 = load ptr, ptr %10, align 8, !tbaa !31
  %93 = load i32, ptr %11, align 4, !tbaa !14
  %94 = load i32, ptr %12, align 4, !tbaa !14
  %95 = add nsw i32 %93, %94
  %96 = call noundef nonnull align 8 dereferenceable(64) ptr @_ZN6icu_7713UnicodeString6insertEiDs(ptr noundef nonnull align 8 dereferenceable(64) %92, i32 noundef %95, i16 noundef zeroext -3)
  %97 = load ptr, ptr %10, align 8, !tbaa !31
  %98 = call noundef signext i8 @_ZNK6icu_7713UnicodeString7isBogusEv(ptr noundef nonnull align 8 dereferenceable(64) %97)
  %99 = icmp ne i8 %98, 0
  br i1 %99, label %100, label %102

100:                                              ; preds = %91
  %101 = load ptr, ptr %15, align 8, !tbaa !22
  store i32 7, ptr %101, align 4, !tbaa !15
  store i32 0, ptr %8, align 4
  store i32 1, ptr %23, align 4
  br label %122

102:                                              ; preds = %91
  %103 = load i32, ptr %12, align 4, !tbaa !14
  %104 = add nsw i32 %103, 1
  store i32 %104, ptr %12, align 4, !tbaa !14
  br label %120

105:                                              ; preds = %88
  %106 = load i8, ptr %13, align 1, !tbaa !33
  %107 = icmp ne i8 %106, 0
  br i1 %107, label %108, label %119

108:                                              ; preds = %105
  %109 = load i8, ptr %17, align 1, !tbaa !33
  %110 = icmp ne i8 %109, 0
  br i1 %110, label %111, label %119

111:                                              ; preds = %108
  %112 = load i32, ptr %12, align 4, !tbaa !14
  %113 = icmp sgt i32 %112, 63
  br i1 %113, label %114, label %119

114:                                              ; preds = %111
  %115 = load ptr, ptr %14, align 8, !tbaa !27
  %116 = getelementptr inbounds nuw %"class.icu_77::IDNAInfo", ptr %115, i32 0, i32 1
  %117 = load i32, ptr %116, align 4, !tbaa !46
  %118 = or i32 %117, 2
  store i32 %118, ptr %116, align 4, !tbaa !46
  br label %119

119:                                              ; preds = %114, %111, %108, %105
  br label %120

120:                                              ; preds = %119, %102
  %121 = load i32, ptr %12, align 4, !tbaa !14
  store i32 %121, ptr %8, align 4
  store i32 1, ptr %23, align 4
  br label %122

122:                                              ; preds = %120, %100
  call void @llvm.lifetime.end.p0(i64 8, ptr %20) #13
  call void @llvm.lifetime.end.p0(i64 8, ptr %19) #13
  call void @llvm.lifetime.end.p0(i64 1, ptr %18) #13
  call void @llvm.lifetime.end.p0(i64 1, ptr %17) #13
  call void @llvm.lifetime.end.p0(i64 1, ptr %16) #13
  br label %123

123:                                              ; preds = %122, %29
  %124 = load i32, ptr %8, align 4
  ret i32 %124
}