; Function Attrs: mustprogress uwtable
define noundef i32 @_ZNK6icu_775UTS4615markBadACELabelERNS_13UnicodeStringEiiaRNS_8IDNAInfoER10UErrorCode(ptr noundef nonnull readonly align 8 captures(none) dereferenceable(20) %0, ptr noundef nonnull align 8 dereferenceable(64) %1, i32 noundef %2, i32 noundef %3, i8 noundef signext %4, ptr noundef nonnull align 4 captures(none) dereferenceable(11) %5, ptr noundef nonnull align 4 captures(none) dereferenceable(4) %6) local_unnamed_addr #1 align 2 {
  %8 = alloca i16, align 2
  %9 = load i32, ptr %6, align 4, !tbaa !13
  %10 = icmp slt i32 %9, 1
  br i1 %10, label %11, label %78

11:                                               ; preds = %7
  %12 = getelementptr inbounds nuw i8, ptr %0, i64 16
  %13 = load i32, ptr %12, align 8, !tbaa !20
  %.fr50 = freeze i32 %13
  %14 = and i32 %.fr50, 2
  %.not41 = icmp eq i32 %14, 0
  %15 = getelementptr inbounds nuw i8, ptr %1, i64 8
  %16 = load i16, ptr %15, align 8, !tbaa !17
  %17 = and i16 %16, 17
  %.not.i = icmp eq i16 %17, 0
  br i1 %.not.i, label %18, label %_ZNK6icu_7713UnicodeString9getBufferEv.exit

18:                                               ; preds = %11
  %19 = and i16 %16, 2
  %.not2.i = icmp eq i16 %19, 0
  br i1 %.not2.i, label %22, label %20

20:                                               ; preds = %18
  %21 = getelementptr inbounds nuw i8, ptr %1, i64 10
  br label %_ZNK6icu_7713UnicodeString9getBufferEv.exit

22:                                               ; preds = %18
  %23 = getelementptr inbounds nuw i8, ptr %1, i64 24
  %24 = load ptr, ptr %23, align 8, !tbaa !17
  br label %_ZNK6icu_7713UnicodeString9getBufferEv.exit

_ZNK6icu_7713UnicodeString9getBufferEv.exit:      ; preds = %11, %20, %22
  %.0.i = phi ptr [ %21, %20 ], [ %24, %22 ], [ null, %11 ]
  %25 = sext i32 %2 to i64
  %26 = getelementptr inbounds i16, ptr %.0.i, i64 %25
  %27 = sext i32 %3 to i64
  %.idx = shl nsw i64 %27, 1
  %28 = getelementptr inbounds i8, ptr %26, i64 %.idx
  %29 = icmp sgt i32 %3, 4
  br i1 %29, label %.lr.ph, label %._crit_edge.thread

.lr.ph:                                           ; preds = %_ZNK6icu_7713UnicodeString9getBufferEv.exit
  %30 = getelementptr inbounds nuw i8, ptr %26, i64 8
  %31 = getelementptr inbounds nuw i8, ptr %5, i64 4
  %.promoted = load i32, ptr %31, align 4
  br i1 %.not41, label %.lr.ph.split.us, label %.lr.ph.split

.lr.ph.split.us:                                  ; preds = %.lr.ph, %43
  %32 = phi i32 [ %44, %43 ], [ %.promoted, %.lr.ph ]
  %.03347.us = phi ptr [ %45, %43 ], [ %30, %.lr.ph ]
  %.03546.us = phi i8 [ %.136.us, %43 ], [ 1, %.lr.ph ]
  %.03745.us = phi i8 [ %.138.us, %43 ], [ 1, %.lr.ph ]
  %33 = load i16, ptr %.03347.us, align 2, !tbaa !27
  %34 = icmp ult i16 %33, 128
  br i1 %34, label %35, label %43

35:                                               ; preds = %.lr.ph.split.us
  %36 = icmp eq i16 %33, 46
  br i1 %36, label %41, label %37

37:                                               ; preds = %35
  %38 = zext nneg i16 %33 to i64
  %39 = getelementptr inbounds nuw [128 x i8], ptr @_ZN6icu_77L9asciiDataE, i64 0, i64 %38
  %40 = load i8, ptr %39, align 1, !tbaa !17
  %.inv = icmp slt i8 %40, 0
  %.037.mux.us = select i1 %.inv, i8 0, i8 %.03745.us
  br label %43

41:                                               ; preds = %35
  %42 = or i32 %32, 512
  store i32 %42, ptr %31, align 4, !tbaa !29
  store i16 -3, ptr %.03347.us, align 2, !tbaa !27
  br label %43

43:                                               ; preds = %37, %41, %.lr.ph.split.us
  %44 = phi i32 [ %42, %41 ], [ %32, %37 ], [ %32, %.lr.ph.split.us ]
  %.138.us = phi i8 [ 0, %41 ], [ %.037.mux.us, %37 ], [ 0, %.lr.ph.split.us ]
  %.136.us = phi i8 [ 0, %41 ], [ %.03546.us, %37 ], [ 0, %.lr.ph.split.us ]
  %45 = getelementptr inbounds nuw i8, ptr %.03347.us, i64 2
  %46 = icmp ult ptr %45, %28
  br i1 %46, label %.lr.ph.split.us, label %._crit_edge, !llvm.loop !42

._crit_edge:                                      ; preds = %59, %43
  %.037.lcssa = phi i8 [ %.138.us, %43 ], [ %.138, %59 ]
  %.035.lcssa = phi i8 [ %.136.us, %43 ], [ %.136, %59 ]
  %.not42 = icmp eq i8 %.037.lcssa, 0
  br i1 %.not42, label %70, label %._crit_edge.thread

.lr.ph.split:                                     ; preds = %.lr.ph, %59
  %47 = phi i32 [ %60, %59 ], [ %.promoted, %.lr.ph ]
  %.03347 = phi ptr [ %61, %59 ], [ %30, %.lr.ph ]
  %.03546 = phi i8 [ %.136, %59 ], [ 1, %.lr.ph ]
  %.03745 = phi i8 [ %.138, %59 ], [ 1, %.lr.ph ]
  %48 = load i16, ptr %.03347, align 2, !tbaa !27
  %49 = icmp ult i16 %48, 128
  br i1 %49, label %50, label %59

50:                                               ; preds = %.lr.ph.split
  %51 = icmp eq i16 %48, 46
  br i1 %51, label %52, label %54

52:                                               ; preds = %50
  %53 = or i32 %47, 512
  store i32 %53, ptr %31, align 4, !tbaa !29
  br label %.sink.split

54:                                               ; preds = %50
  %55 = zext nneg i16 %48 to i64
  %56 = getelementptr inbounds nuw [128 x i8], ptr @_ZN6icu_77L9asciiDataE, i64 0, i64 %55
  %57 = load i8, ptr %56, align 1, !tbaa !17
  %58 = icmp sgt i8 %57, -1
  br i1 %58, label %59, label %.sink.split

.sink.split:                                      ; preds = %54, %52
  %.ph = phi i32 [ %53, %52 ], [ %47, %54 ]
  store i16 -3, ptr %.03347, align 2, !tbaa !27
  br label %59

59:                                               ; preds = %.sink.split, %.lr.ph.split, %54
  %60 = phi i32 [ %47, %54 ], [ %47, %.lr.ph.split ], [ %.ph, %.sink.split ]
  %.138 = phi i8 [ %.03745, %54 ], [ 0, %.lr.ph.split ], [ 0, %.sink.split ]
  %.136 = phi i8 [ %.03546, %54 ], [ 0, %.lr.ph.split ], [ 0, %.sink.split ]
  %61 = getelementptr inbounds nuw i8, ptr %.03347, i64 2
  %62 = icmp ult ptr %61, %28
  br i1 %62, label %.lr.ph.split, label %._crit_edge, !llvm.loop !42

._crit_edge.thread:                               ; preds = %_ZNK6icu_7713UnicodeString9getBufferEv.exit, %._crit_edge
  %63 = add nsw i32 %3, %2
  call void @llvm.lifetime.start.p0(i64 2, ptr nonnull %8)
  store i16 -3, ptr %8, align 2, !tbaa !27
  %64 = call noundef nonnull align 8 dereferenceable(64) ptr @_ZN6icu_7713UnicodeString9doReplaceEiiPKDsii(ptr noundef nonnull align 8 dereferenceable(64) %1, i32 noundef %63, i32 noundef 0, ptr noundef nonnull %8, i32 noundef 0, i32 noundef 1)
  call void @llvm.lifetime.end.p0(i64 2, ptr nonnull %8)
  %65 = load i16, ptr %15, align 8, !tbaa !17
  %66 = and i16 %65, 1
  %.not43 = icmp eq i16 %66, 0
  br i1 %.not43, label %68, label %67

67:                                               ; preds = %._crit_edge.thread
  store i32 7, ptr %6, align 4, !tbaa !13
  br label %78

68:                                               ; preds = %._crit_edge.thread
  %69 = add nsw i32 %3, 1
  br label %78

70:                                               ; preds = %._crit_edge
  %71 = icmp ne i8 %4, 0
  %72 = icmp ne i8 %.035.lcssa, 0
  %or.cond = select i1 %71, i1 %72, i1 false
  %73 = icmp sgt i32 %3, 63
  %or.cond3 = and i1 %73, %or.cond
  br i1 %or.cond3, label %74, label %78

74:                                               ; preds = %70
  %75 = getelementptr inbounds nuw i8, ptr %5, i64 4
  %76 = load i32, ptr %75, align 4, !tbaa !29
  %77 = or i32 %76, 2
  store i32 %77, ptr %75, align 4, !tbaa !29
  br label %78

78:                                               ; preds = %67, %70, %74, %68, %7
  %.0 = phi i32 [ 0, %7 ], [ 0, %67 ], [ %69, %68 ], [ %3, %74 ], [ %3, %70 ]
  ret i32 %.0
}